target datalayout = "e-m:e-p270:32:32-p271:32:32-p272:64:64-i64:64-i128:128-f80:128-n8:16:32:64-S128"
target triple = "x86_64-pc-linux-gnu"

%"struct.absl::debugging_internal::State" = type { ptr, ptr, i32, i32, i32, %"struct.absl::debugging_internal::ParseState" }
%"struct.absl::debugging_internal::ParseState" = type { i32, i32, i32, i32 }
%"class.absl::debugging_internal::(anonymous namespace)::ComplexityGuard" = type { ptr }

; Function Attrs: mustprogress nounwind uwtable
define internal void @_ZN4absl18debugging_internal12_GLOBAL__N_115ComplexityGuardD2Ev(ptr noundef nonnull align 8 dereferenceable(8) %0) unnamed_addr #3 align 2 {
  %2 = alloca ptr, align 8
  store ptr %0, ptr %2, align 8, !tbaa !27
  %3 = load ptr, ptr %2, align 8
  %4 = getelementptr inbounds nuw %"class.absl::debugging_internal::(anonymous namespace)::ComplexityGuard", ptr %3, i32 0, i32 0
  %5 = load ptr, ptr %4, align 8, !tbaa !29
  %6 = getelementptr inbounds nuw %"struct.absl::debugging_internal::State", ptr %5, i32 0, i32 3
  %7 = load i32, ptr %6, align 4, !tbaa !20
  %8 = add nsw i32 %7, -1
  store i32 %8, ptr %6, align 4, !tbaa !20
  ret void
}

; Function Attrs: mustprogress nounwind uwtable
define internal void @_ZN4absl18debugging_internal12_GLOBAL__N_119UpdateHighWaterMarkEPNS0_5StateE(ptr noundef %0) #3 {
  %2 = alloca ptr, align 8
  store ptr %0, ptr %2, align 8, !tbaa !16
  ret void
}

; Function Attrs: inlinehint mustprogress nounwind uwtable
define internal noundef ptr @_ZN4absl18debugging_internalL14RemainingInputEPNS0_5StateE(ptr noundef %0) #5 {
  %2 = alloca ptr, align 8
  store ptr %0, ptr %2, align 8, !tbaa !16
  %3 = load ptr, ptr %2, align 8, !tbaa !16
  %4 = getelementptr inbounds nuw %"struct.absl::debugging_internal::State", ptr %3, i32 0, i32 0
  %5 = load ptr, ptr %4, align 8, !tbaa !17
  %6 = load ptr, ptr %2, align 8, !tbaa !16
  %7 = getelementptr inbounds nuw %"struct.absl::debugging_internal::State", ptr %6, i32 0, i32 5
  %8 = getelementptr inbounds nuw %"struct.absl::debugging_internal::ParseState", ptr %7, i32 0, i32 0
  %9 = load i32, ptr %8, align 4, !tbaa !22
  %10 = sext i32 %9 to i64
  %11 = getelementptr inbounds i8, ptr %5, i64 %10
  ret ptr %11
}

; Function Attrs: mustprogress nounwind uwtable
define internal noundef zeroext i1 @_ZNK4absl18debugging_internal12_GLOBAL__N_115ComplexityGuard12IsTooComplexEv(ptr noundef nonnull align 8 dereferenceable(8) %0) #3 align 2 {
  %2 = alloca i1, align 1
  %3 = alloca ptr, align 8
  store ptr %0, ptr %3, align 8, !tbaa !27
  %4 = load ptr, ptr %3, align 8
  %5 = getelementptr inbounds nuw %"class.absl::debugging_internal::(anonymous namespace)::ComplexityGuard", ptr %4, i32 0, i32 0
  %6 = load ptr, ptr %5, align 8, !tbaa !29
  %7 = getelementptr inbounds nuw %"struct.absl::debugging_internal::State", ptr %6, i32 0, i32 3
  %8 = load i32, ptr %7, align 4, !tbaa !20
  %9 = icmp sgt i32 %8, 256
  br i1 %9, label %16, label %10

10:                                               ; preds = %1
  %11 = getelementptr inbounds nuw %"class.absl::debugging_internal::(anonymous namespace)::ComplexityGuard", ptr %4, i32 0, i32 0
  %12 = load ptr, ptr %11, align 8, !tbaa !29
  %13 = getelementptr inbounds nuw %"struct.absl::debugging_internal::State", ptr %12, i32 0, i32 4
  %14 = load i32, ptr %13, align 8, !tbaa !21
  %15 = icmp sgt i32 %14, 131072
  br i1 %15, label %16, label %17

16:                                               ; preds = %10, %1
  store i1 true, ptr %2, align 1
  br label %18

17:                                               ; preds = %10
  store i1 false, ptr %2, align 1
  br label %18

18:                                               ; preds = %17, %16
  %19 = load i1, ptr %2, align 1
  ret i1 %19
}

; Function Attrs: mustprogress nounwind uwtable
define internal void @_ZN4absl18debugging_internal12_GLOBAL__N_115ComplexityGuardC2EPNS0_5StateE(ptr noundef nonnull align 8 dereferenceable(8) %0, ptr noundef %1) unnamed_addr #3 align 2 {
  %3 = alloca ptr, align 8
  %4 = alloca ptr, align 8
  store ptr %0, ptr %3, align 8, !tbaa !27
  store ptr %1, ptr %4, align 8, !tbaa !16
  %5 = load ptr, ptr %3, align 8
  %6 = getelementptr inbounds nuw %"class.absl::debugging_internal::(anonymous namespace)::ComplexityGuard", ptr %5, i32 0, i32 0
  %7 = load ptr, ptr %4, align 8, !tbaa !16
  store ptr %7, ptr %6, align 8, !tbaa !29
  %8 = load ptr, ptr %4, align 8, !tbaa !16
  %9 = getelementptr inbounds nuw %"struct.absl::debugging_internal::State", ptr %8, i32 0, i32 3
  %10 = load i32, ptr %9, align 4, !tbaa !20
  %11 = add nsw i32 %10, 1
  store i32 %11, ptr %9, align 4, !tbaa !20
  %12 = load ptr, ptr %4, align 8, !tbaa !16
  %13 = getelementptr inbounds nuw %"struct.absl::debugging_internal::State", ptr %12, i32 0, i32 4
  %14 = load i32, ptr %13, align 8, !tbaa !21
  %15 = add nsw i32 %14, 1
  store i32 %15, ptr %13, align 8, !tbaa !21
  ret void
}

; Function Attrs: mustprogress uwtable
define internal noundef zeroext i1 @_ZN4absl18debugging_internalL17ParseTwoCharTokenEPNS0_5StateEPKc(ptr noundef %0, ptr noundef %1) #0 personality ptr @__gxx_personality_v0 {
  %3 = alloca i1, align 1
  %4 = alloca ptr, align 8
  %5 = alloca ptr, align 8
  %6 = alloca %"class.absl::debugging_internal::(anonymous namespace)::ComplexityGuard", align 8
  %7 = alloca i32, align 4
  %8 = alloca ptr, align 8
  %9 = alloca i32, align 4
  store ptr %0, ptr %4, align 8, !tbaa !16
  store ptr %1, ptr %5, align 8, !tbaa !4
  call void @llvm.lifetime.start.p0(i64 8, ptr %6) #12
  %10 = load ptr, ptr %4, align 8, !tbaa !16
  call void @_ZN4absl18debugging_internal12_GLOBAL__N_115ComplexityGuardC2EPNS0_5StateE(ptr noundef nonnull align 8 dereferenceable(8) %6, ptr noundef %10)
  %11 = call noundef zeroext i1 @_ZNK4absl18debugging_internal12_GLOBAL__N_115ComplexityGuard12IsTooComplexEv(ptr noundef nonnull align 8 dereferenceable(8) %6)
  br i1 %11, label %12, label %13

12:                                               ; preds = %2
  store i1 false, ptr %3, align 1
  store i32 1, ptr %7, align 4
  br label %50

13:                                               ; preds = %2
  %14 = load ptr, ptr %4, align 8, !tbaa !16
  %15 = invoke noundef ptr @_ZN4absl18debugging_internalL14RemainingInputEPNS0_5StateE(ptr noundef %14)
          to label %16 unwind label %45

16:                                               ; preds = %13
  %17 = getelementptr inbounds i8, ptr %15, i64 0
  %18 = load i8, ptr %17, align 1, !tbaa !11
  %19 = sext i8 %18 to i32
  %20 = load ptr, ptr %5, align 8, !tbaa !4
  %21 = getelementptr inbounds i8, ptr %20, i64 0
  %22 = load i8, ptr %21, align 1, !tbaa !11
  %23 = sext i8 %22 to i32
  %24 = icmp eq i32 %19, %23
  br i1 %24, label %25, label %49

25:                                               ; preds = %16
  %26 = load ptr, ptr %4, align 8, !tbaa !16
  %27 = invoke noundef ptr @_ZN4absl18debugging_internalL14RemainingInputEPNS0_5StateE(ptr noundef %26)
          to label %28 unwind label %45

28:                                               ; preds = %25
  %29 = getelementptr inbounds i8, ptr %27, i64 1
  %30 = load i8, ptr %29, align 1, !tbaa !11
  %31 = sext i8 %30 to i32
  %32 = load ptr, ptr %5, align 8, !tbaa !4
  %33 = getelementptr inbounds i8, ptr %32, i64 1
  %34 = load i8, ptr %33, align 1, !tbaa !11
  %35 = sext i8 %34 to i32
  %36 = icmp eq i32 %31, %35
  br i1 %36, label %37, label %49

37:                                               ; preds = %28
  %38 = load ptr, ptr %4, align 8, !tbaa !16
  %39 = getelementptr inbounds nuw %"struct.absl::debugging_internal::State", ptr %38, i32 0, i32 5
  %40 = getelementptr inbounds nuw %"struct.absl::debugging_internal::ParseState", ptr %39, i32 0, i32 0
  %41 = load i32, ptr %40, align 4, !tbaa !22
  %42 = add nsw i32 %41, 2
  store i32 %42, ptr %40, align 4, !tbaa !22
  %43 = load ptr, ptr %4, align 8, !tbaa !16
  invoke void @_ZN4absl18debugging_internal12_GLOBAL__N_119UpdateHighWaterMarkEPNS0_5StateE(ptr noundef %43)
          to label %44 unwind label %45

44:                                               ; preds = %37
  store i1 true, ptr %3, align 1
  store i32 1, ptr %7, align 4
  br label %50

45:                                               ; preds = %37, %25, %13
  %46 = landingpad { ptr, i32 }
          cleanup
  %47 = extractvalue { ptr, i32 } %46, 0
  store ptr %47, ptr %8, align 8
  %48 = extractvalue { ptr, i32 } %46, 1
  store i32 %48, ptr %9, align 4
  call void @_ZN4absl18debugging_internal12_GLOBAL__N_115ComplexityGuardD2Ev(ptr noundef nonnull align 8 dereferenceable(8) %6) #12
  call void @llvm.lifetime.end.p0(i64 8, ptr %6) #12
  br label %52

49:                                               ; preds = %28, %16
  store i1 false, ptr %3, align 1
  store i32 1, ptr %7, align 4
  br label %50

50:                                               ; preds = %49, %44, %12
  call void @_ZN4absl18debugging_internal12_GLOBAL__N_115ComplexityGuardD2Ev(ptr noundef nonnull align 8 dereferenceable(8) %6) #12
  call void @llvm.lifetime.end.p0(i64 8, ptr %6) #12
  %51 = load i1, ptr %3, align 1
  ret i1 %51

52:                                               ; preds = %45
  %53 = load ptr, ptr %8, align 8
  %54 = load i32, ptr %9, align 4
  %55 = insertvalue { ptr, i32 } poison, ptr %53, 0
  %56 = insertvalue { ptr, i32 } %55, i32 %54, 1
  resume { ptr, i32 } %56
}