; Function Attrs: mustprogress nofree norecurse nosync nounwind willreturn memory(read, argmem: readwrite, inaccessiblemem: none) uwtable
define internal fastcc noundef zeroext i1 @_ZN4absl18debugging_internalL17ParseTwoCharTokenEPNS0_5StateEPKc(ptr noundef captures(none) %0, ptr noundef readonly captures(none) %1) unnamed_addr #5 personality ptr @__gxx_personality_v0 {
  %3 = getelementptr inbounds nuw i8, ptr %0, i64 20
  %4 = load i32, ptr %3, align 4, !tbaa !17
  %5 = add nsw i32 %4, 1
  store i32 %5, ptr %3, align 4, !tbaa !17
  %6 = getelementptr inbounds nuw i8, ptr %0, i64 24
  %7 = load i32, ptr %6, align 8, !tbaa !15
  %8 = add nsw i32 %7, 1
  store i32 %8, ptr %6, align 8, !tbaa !15
  %9 = icmp sgt i32 %4, 255
  %10 = icmp sgt i32 %7, 131071
  %or.cond = select i1 %9, i1 true, i1 %10
  br i1 %or.cond, label %_ZNK4absl18debugging_internal12_GLOBAL__N_115ComplexityGuard12IsTooComplexEv.exit.thread, label %11

11:                                               ; preds = %2
  %.val11 = load ptr, ptr %0, align 8, !tbaa !7
  %12 = getelementptr i8, ptr %0, i64 28
  %.val12 = load i32, ptr %12, align 4, !tbaa !16
  %13 = sext i32 %.val12 to i64
  %14 = getelementptr inbounds i8, ptr %.val11, i64 %13
  %15 = load i8, ptr %14, align 1, !tbaa !4
  %16 = load i8, ptr %1, align 1, !tbaa !4
  %17 = icmp eq i8 %15, %16
  br i1 %17, label %18, label %_ZNK4absl18debugging_internal12_GLOBAL__N_115ComplexityGuard12IsTooComplexEv.exit.thread

18:                                               ; preds = %11
  %19 = getelementptr inbounds nuw i8, ptr %14, i64 1
  %20 = load i8, ptr %19, align 1, !tbaa !4
  %21 = getelementptr inbounds nuw i8, ptr %1, i64 1
  %22 = load i8, ptr %21, align 1, !tbaa !4
  %23 = icmp eq i8 %20, %22
  br i1 %23, label %24, label %_ZNK4absl18debugging_internal12_GLOBAL__N_115ComplexityGuard12IsTooComplexEv.exit.thread

24:                                               ; preds = %18
  %25 = add nsw i32 %.val12, 2
  store i32 %25, ptr %12, align 4, !tbaa !16
  br label %_ZNK4absl18debugging_internal12_GLOBAL__N_115ComplexityGuard12IsTooComplexEv.exit.thread

_ZNK4absl18debugging_internal12_GLOBAL__N_115ComplexityGuard12IsTooComplexEv.exit.thread: ; preds = %2, %11, %18, %24
  %.0 = phi i1 [ true, %24 ], [ false, %18 ], [ false, %11 ], [ false, %2 ]
  store i32 %4, ptr %3, align 4, !tbaa !17
  ret i1 %.0
}